; Function Attrs: nounwind uwtable
define void @Gia_ManExtractTest(ptr noundef %0) local_unnamed_addr #0 {
  %2 = alloca %struct.timespec, align 8
  %3 = alloca %struct.timespec, align 8
  %4 = tail call ptr @Gia_ManExtractCuts2(ptr noundef %0, i32 noundef 8, i32 noundef 10000, i32 noundef 1) #26
  call void @llvm.lifetime.start.p0(i64 16, ptr nonnull %3) #26
  %5 = call i32 @clock_gettime(i32 noundef 1, ptr noundef nonnull %3) #26
  %6 = icmp slt i32 %5, 0
  br i1 %6, label %Abc_Clock.exit, label %7

7:                                                ; preds = %1
  %8 = load i64, ptr %3, align 8, !tbaa !93
  %.neg7 = mul i64 %8, -1000000
  %9 = getelementptr inbounds nuw i8, ptr %3, i64 8
  %10 = load i64, ptr %9, align 8, !tbaa !95
  %.neg = sdiv i64 %10, -1000
  %.neg8 = add i64 %.neg, %.neg7
  br label %Abc_Clock.exit

Abc_Clock.exit:                                   ; preds = %1, %7
  %.0.i.neg = phi i64 [ %.neg8, %7 ], [ 1, %1 ]
  call void @llvm.lifetime.end.p0(i64 16, ptr nonnull %3) #26
  call void @Gia_ManCreateWins(ptr noundef %0, ptr noundef %4)
  %11 = getelementptr i8, ptr %4, i64 4
  %.val22.i = load i32, ptr %11, align 4, !tbaa !100
  %12 = icmp sgt i32 %.val22.i, 0
  br i1 %12, label %.lr.ph.i, label %Gia_ManPrintWinStats.exit

.lr.ph.i:                                         ; preds = %Abc_Clock.exit
  %13 = getelementptr i8, ptr %4, i64 8
  %.val.i = load ptr, ptr %13, align 8, !tbaa !34
  %wide.trip.count.i = zext nneg i32 %.val22.i to i64
  br label %14

14:                                               ; preds = %14, %.lr.ph.i
  %indvars.iv.i = phi i64 [ 0, %.lr.ph.i ], [ %indvars.iv.next.i, %14 ]
  %.025.i = phi i32 [ 0, %.lr.ph.i ], [ %22, %14 ]
  %.01424.i = phi i32 [ 0, %.lr.ph.i ], [ %18, %14 ]
  %15 = getelementptr inbounds nuw %struct.Vec_Int_t_, ptr %.val.i, i64 %indvars.iv.i
  %16 = getelementptr i8, ptr %15, i64 8
  %.val17.i = load ptr, ptr %16, align 8, !tbaa !36
  %17 = load i32, ptr %.val17.i, align 4, !tbaa !37
  %18 = add nsw i32 %17, %.01424.i
  %19 = getelementptr i8, ptr %15, i64 4
  %.val18.i = load i32, ptr %19, align 4, !tbaa !89
  %20 = xor i32 %17, -1
  %21 = add i32 %.025.i, %20
  %22 = add i32 %21, %.val18.i
  %indvars.iv.next.i = add nuw nsw i64 %indvars.iv.i, 1
  %exitcond.not.i = icmp eq i64 %indvars.iv.next.i, %wide.trip.count.i
  br i1 %exitcond.not.i, label %.critedge.loopexit.i, label %14, !llvm.loop !131

.critedge.loopexit.i:                             ; preds = %14
  %23 = sitofp i32 %18 to double
  %24 = sitofp i32 %22 to double
  br label %Gia_ManPrintWinStats.exit

Gia_ManPrintWinStats.exit:                        ; preds = %Abc_Clock.exit, %.critedge.loopexit.i
  %.014.lcssa.i = phi double [ 0.000000e+00, %Abc_Clock.exit ], [ %23, %.critedge.loopexit.i ]
  %.0.lcssa.i = phi double [ 0.000000e+00, %Abc_Clock.exit ], [ %24, %.critedge.loopexit.i ]
  %25 = sitofp i32 %.val22.i to double
  %26 = fdiv double %.014.lcssa.i, %25
  %27 = fdiv double %.0.lcssa.i, %25
  %28 = call i32 (ptr, ...) @printf(ptr noundef nonnull dereferenceable(1) @.str.16, i32 noundef %.val22.i, double noundef %26, double noundef %27)
  %29 = load i32, ptr %4, align 8, !tbaa !99
  %30 = icmp sgt i32 %29, 0
  %31 = getelementptr inbounds nuw i8, ptr %4, i64 8
  %.pre.i.i = load ptr, ptr %31, align 8, !tbaa !34
  br i1 %30, label %.lr.ph.i.i, label %._crit_edge.i.i

.lr.ph.i.i:                                       ; preds = %Gia_ManPrintWinStats.exit, %39
  %32 = phi i32 [ %40, %39 ], [ %29, %Gia_ManPrintWinStats.exit ]
  %33 = phi ptr [ %41, %39 ], [ %.pre.i.i, %Gia_ManPrintWinStats.exit ]
  %indvars.iv.i.i = phi i64 [ %indvars.iv.next.i.i, %39 ], [ 0, %Gia_ManPrintWinStats.exit ]
  %34 = getelementptr inbounds nuw %struct.Vec_Int_t_, ptr %33, i64 %indvars.iv.i.i, i32 2
  %35 = load ptr, ptr %34, align 8, !tbaa !36
  %.not15.i.i = icmp eq ptr %35, null
  br i1 %.not15.i.i, label %39, label %36

36:                                               ; preds = %.lr.ph.i.i
  call void @free(ptr noundef nonnull %35) #26
  %37 = load ptr, ptr %31, align 8, !tbaa !34
  %38 = getelementptr inbounds nuw %struct.Vec_Int_t_, ptr %37, i64 %indvars.iv.i.i, i32 2
  store ptr null, ptr %38, align 8, !tbaa !36
  %.pre18.i.i = load i32, ptr %4, align 8, !tbaa !99
  br label %39

39:                                               ; preds = %36, %.lr.ph.i.i
  %40 = phi i32 [ %.pre18.i.i, %36 ], [ %32, %.lr.ph.i.i ]
  %41 = phi ptr [ %37, %36 ], [ %33, %.lr.ph.i.i ]
  %indvars.iv.next.i.i = add nuw nsw i64 %indvars.iv.i.i, 1
  %42 = sext i32 %40 to i64
  %43 = icmp slt i64 %indvars.iv.next.i.i, %42
  br i1 %43, label %.lr.ph.i.i, label %._crit_edge.thread.i.i, !llvm.loop !106

._crit_edge.i.i:                                  ; preds = %Gia_ManPrintWinStats.exit
  %.not.i.i = icmp eq ptr %.pre.i.i, null
  br i1 %.not.i.i, label %Vec_WecFree.exit, label %._crit_edge.thread.i.i

._crit_edge.thread.i.i:                           ; preds = %39, %._crit_edge.i.i
  %44 = phi ptr [ %.pre.i.i, %._crit_edge.i.i ], [ %41, %39 ]
  call void @free(ptr noundef nonnull %44) #26
  br label %Vec_WecFree.exit

Vec_WecFree.exit:                                 ; preds = %._crit_edge.i.i, %._crit_edge.thread.i.i
  call void @free(ptr noundef nonnull %4) #26
  call void @llvm.lifetime.start.p0(i64 16, ptr nonnull %2) #26
  %45 = call i32 @clock_gettime(i32 noundef 1, ptr noundef nonnull %2) #26
  %46 = icmp slt i32 %45, 0
  br i1 %46, label %Abc_Clock.exit6, label %47

47:                                               ; preds = %Vec_WecFree.exit
  %48 = load i64, ptr %2, align 8, !tbaa !93
  %49 = mul nsw i64 %48, 1000000
  %50 = getelementptr inbounds nuw i8, ptr %2, i64 8
  %51 = load i64, ptr %50, align 8, !tbaa !95
  %52 = sdiv i64 %51, 1000
  %53 = add nsw i64 %52, %49
  br label %Abc_Clock.exit6

Abc_Clock.exit6:                                  ; preds = %Vec_WecFree.exit, %47
  %.0.i5 = phi i64 [ %53, %47 ], [ -1, %Vec_WecFree.exit ]
  call void @llvm.lifetime.end.p0(i64 16, ptr nonnull %2) #26
  %54 = add i64 %.0.i5, %.0.i.neg
  call void (i32, ptr, ...) @Abc_Print(i32 poison, ptr noundef nonnull @.str.47, ptr noundef nonnull @.str.17)
  %55 = sitofp i64 %54 to double
  %56 = fdiv double %55, 1.000000e+06
  call void (i32, ptr, ...) @Abc_Print(i32 poison, ptr noundef nonnull @.str.48, double noundef %56)
  ret void
}